target datalayout = "e-m:e-p270:32:32-p271:32:32-p272:64:64-i64:64-i128:128-f80:128-n8:16:32:64-S128"
target triple = "x86_64-pc-linux-gnu"

%class.CellTypeState = type { i32 }
%class.methodHandle = type { ptr, ptr }
%class.RetTable = type { ptr }
%class.GenerateOopMap = type { ptr, %class.methodHandle, %class.RetTable, i32, i32, i32, i32, i8, %class.Handle, i8, i8, i8, i32, ptr, ptr, i32, i32, ptr, i32, i32, %class.ResourceBitMap, i8, i8, ptr, ptr, i8, i32, ptr, ptr }
%class.Handle = type { ptr }
%class.ResourceBitMap = type { %class.GrowableBitMap }
%class.GrowableBitMap = type { %class.BitMap }
%class.BitMap = type { ptr, i64 }

@.str.33 = private unnamed_addr constant [15 x i8] c"stack overflow\00", align 1
@.str.78 = private unnamed_addr constant [62 x i8] c"Illegal class file encountered. Try running with -Xverify:all\00", align 1

; Function Attrs: mustprogress nounwind uwtable
define linkonce_odr hidden noundef ptr @_ZN14GenerateOopMap5stackEv(ptr noundef nonnull align 8 dereferenceable(176) %0) #1 comdat align 2 {
  %2 = alloca ptr, align 8
  store ptr %0, ptr %2, align 8
  %3 = load ptr, ptr %2, align 8
  %4 = getelementptr inbounds %class.GenerateOopMap, ptr %3, i32 0, i32 13
  %5 = load ptr, ptr %4, align 8
  %6 = getelementptr inbounds %class.GenerateOopMap, ptr %3, i32 0, i32 3
  %7 = load i32, ptr %6, align 8
  %8 = sext i32 %7 to i64
  %9 = getelementptr inbounds %class.CellTypeState, ptr %5, i64 %8
  ret ptr %9
}

; Function Attrs: mustprogress nounwind uwtable
define hidden void @_ZN14GenerateOopMap12verify_errorEPKcz(ptr noundef nonnull align 8 dereferenceable(176) %0, ptr noundef %1, ...) #1 align 2 {
  %3 = alloca ptr, align 8
  %4 = alloca ptr, align 8
  store ptr %0, ptr %3, align 8
  store ptr %1, ptr %4, align 8
  %5 = load ptr, ptr %3, align 8
  call void (ptr, ptr, ...) @_ZN14GenerateOopMap12report_errorEPKcz(ptr noundef nonnull align 8 dereferenceable(176) %5, ptr noundef @.str.78)
  ret void
}

; Function Attrs: mustprogress nounwind uwtable
define hidden void @_ZN14GenerateOopMap4pushE13CellTypeState(ptr noundef nonnull align 8 dereferenceable(176) %0, i32 %1) #1 align 2 {
  %3 = alloca %class.CellTypeState, align 4
  %4 = alloca ptr, align 8
  %5 = getelementptr inbounds %class.CellTypeState, ptr %3, i32 0, i32 0
  store i32 %1, ptr %5, align 4
  store ptr %0, ptr %4, align 8
  %6 = load ptr, ptr %4, align 8
  %7 = getelementptr inbounds %class.GenerateOopMap, ptr %6, i32 0, i32 15
  %8 = load i32, ptr %7, align 8
  %9 = getelementptr inbounds %class.GenerateOopMap, ptr %6, i32 0, i32 4
  %10 = load i32, ptr %9, align 4
  %11 = icmp sge i32 %8, %10
  br i1 %11, label %12, label %13

12:                                               ; preds = %2
  call void (ptr, ptr, ...) @_ZN14GenerateOopMap12verify_errorEPKcz(ptr noundef nonnull align 8 dereferenceable(176) %6, ptr noundef @.str.33)
  br label %20

13:                                               ; preds = %2
  %14 = call noundef ptr @_ZN14GenerateOopMap5stackEv(ptr noundef nonnull align 8 dereferenceable(176) %6)
  %15 = getelementptr inbounds %class.GenerateOopMap, ptr %6, i32 0, i32 15
  %16 = load i32, ptr %15, align 8
  %17 = add nsw i32 %16, 1
  store i32 %17, ptr %15, align 8
  %18 = sext i32 %16 to i64
  %19 = getelementptr inbounds %class.CellTypeState, ptr %14, i64 %18
  call void @llvm.memcpy.p0.p0.i64(ptr align 4 %19, ptr align 4 %3, i64 4, i1 false)
  br label %20

20:                                               ; preds = %13, %12
  ret void
}

; Function Attrs: mustprogress nounwind uwtable
define hidden void @_ZN14GenerateOopMap6ppush1E13CellTypeState(ptr noundef nonnull align 8 dereferenceable(176) %0, i32 %1) #1 align 2 {
  %3 = alloca %class.CellTypeState, align 4
  %4 = alloca ptr, align 8
  %5 = alloca %class.CellTypeState, align 4
  %6 = getelementptr inbounds %class.CellTypeState, ptr %3, i32 0, i32 0
  store i32 %1, ptr %6, align 4
  store ptr %0, ptr %4, align 8
  %7 = load ptr, ptr %4, align 8
  call void @llvm.memcpy.p0.p0.i64(ptr align 4 %5, ptr align 4 %3, i64 4, i1 false)
  %8 = getelementptr inbounds %class.CellTypeState, ptr %5, i32 0, i32 0
  %9 = load i32, ptr %8, align 4
  call void @_ZN14GenerateOopMap4pushE13CellTypeState(ptr noundef nonnull align 8 dereferenceable(176) %7, i32 %9)
  ret void
}