; Function Attrs: mustprogress nounwind uwtable
define hidden void @_ZN14GenerateOopMap6ppush1E13CellTypeState(ptr nocapture noundef nonnull align 8 dereferenceable(176) %0, i32 %1) local_unnamed_addr #0 align 2 {
  %3 = getelementptr inbounds i8, ptr %0, i64 88
  %4 = load i32, ptr %3, align 8
  %5 = getelementptr inbounds i8, ptr %0, i64 36
  %6 = load i32, ptr %5, align 4
  %.not.i = icmp slt i32 %4, %6
  br i1 %.not.i, label %8, label %7

7:                                                ; preds = %2
  tail call void (ptr, ptr, ...) @_ZN14GenerateOopMap12report_errorEPKcz(ptr noundef nonnull align 8 dereferenceable(176) %0, ptr noundef nonnull @.str.78)
  br label %_ZN14GenerateOopMap4pushE13CellTypeState.exit

8:                                                ; preds = %2
  %9 = getelementptr inbounds i8, ptr %0, i64 72
  %10 = load ptr, ptr %9, align 8
  %11 = getelementptr inbounds i8, ptr %0, i64 32
  %12 = load i32, ptr %11, align 8
  %13 = sext i32 %12 to i64
  %14 = getelementptr inbounds %class.CellTypeState, ptr %10, i64 %13
  %15 = add nsw i32 %4, 1
  store i32 %15, ptr %3, align 8
  %16 = sext i32 %4 to i64
  %17 = getelementptr inbounds %class.CellTypeState, ptr %14, i64 %16
  store i32 %1, ptr %17, align 4
  br label %_ZN14GenerateOopMap4pushE13CellTypeState.exit

_ZN14GenerateOopMap4pushE13CellTypeState.exit:    ; preds = %7, %8
  ret void
}